; Function Attrs: mustprogress null_pointer_is_valid sspstrong uwtable
define void @_ZN13IOGraphDialog26on_zoomRadioButton_toggledEb(ptr noundef align 8 captures(none) dereferenceable_or_null(384) %0, i1 noundef zeroext %1) local_unnamed_addr #2 align 2 {
  %3 = alloca %class.QFlags.26, align 4
  br i1 %1, label %4, label %6

4:                                                ; preds = %2
  %5 = getelementptr inbounds nuw i8, ptr %0, i64 272
  store i8 0, ptr %5, align 8
  br label %6

6:                                                ; preds = %4, %2
  %7 = getelementptr inbounds nuw i8, ptr %0, i64 144
  %8 = load ptr, ptr %7, align 8
  %9 = getelementptr inbounds nuw i8, ptr %8, i64 208
  %10 = load ptr, ptr %9, align 8
  call void @llvm.lifetime.start.p0(i64 4, ptr nonnull %3) #33
  store i32 0, ptr %3, align 4
  call void @_ZN11QCustomPlot15setInteractionsERK6QFlagsIN3QCP11InteractionEE(ptr noundef align 8 dereferenceable_or_null(513) %10, ptr noundef nonnull align 4 dereferenceable(4) %3)
  call void @llvm.lifetime.end.p0(i64 4, ptr nonnull %3) #33
  ret void
}